Certificate:
    Data:
        Version: 3 (0x2)
        Serial Number: 1 (0x1)
    Signature Algorithm: sha256WithRSAEncryption
        Issuer: C=US, ST=Unset, L=Unset, O=Unset, CN=www.example.com
        Validity
            Not Before: May  1 08:09:34 2015 GMT
            Not After : Apr 28 08:09:34 2025 GMT
        Subject: C=US, ST=Unset, O=Unset, CN=www.example.com
        Subject Public Key Info:
            Public Key Algorithm: rsaEncryption
                Public-Key: (2048 bit)
                Modulus:
                    00:95:aa:c9:28:65:d6:16:1b:65:a8:e4:cb:82:ad:
                    90:7d:49:ba:63:29:8d:77:be:00:78:ab:2d:f3:16:
                    69:58:d9:9b:2c:47:ec:03:9a:da:42:a5:99:9f:c0:
                    cb:e5:e8:c0:e8:fe:82:9d:d7:c3:37:1c:3c:bf:55:
                    8b:a5:49:e0:b3:90:da:81:34:f6:82:42:47:14:cb:
                    5b:3c:12:43:58:3b:48:41:42:ca:63:c1:ce:29:6b:
                    16:22:43:d8:36:44:62:b6:ec:e2:16:65:54:cd:d3:
                    1e:34:d8:5c:a8:39:d9:5b:85:8e:7d:d5:3d:22:90:
                    18:b4:11:71:f6:e6:15:22:f1:ab:7d:2b:1b:ea:6e:
                    c7:77:f8:81:3a:8a:bf:fa:bd:97:a1:c0:59:f5:ff:
                    32:44:b8:1a:02:4e:5a:5b:66:53:e3:3b:78:30:a0:
                    21:f5:c7:d3:0f:de:b1:57:6e:56:ca:17:c7:d5:35:
                    a8:0b:63:14:7b:b4:61:88:3d:24:03:9d:a4:5c:48:
                    82:97:f3:09:ff:97:14:cf:44:fc:a3:ce:97:99:8c:
                    40:67:27:46:88:f6:74:6a:60:3c:7f:e7:30:63:82:
                    c4:5e:90:9e:ac:12:16:d5:96:a2:c2:e8:85:04:df:
                    68:c6:4e:40:65:af:39:2a:9b:39:63:08:0a:42:90:
                    4d:69
                Exponent: 65537 (0x10001)
        X509v3 extensions:
            X509v3 Basic Constraints: 
                CA:FALSE
            X509v3 Subject Key Identifier: 
                D4:F0:76:BC:22:10:3F:D9:8B:78:70:78:D0:80:18:15:3D:A5:B4:8B
            X509v3 Authority Key Identifier: 
                keyid:7F:A8:37:4B:3B:BC:B0:7A:8F:2B:71:25:35:CD:94:17:2D:54:13:39

    Signature Algorithm: sha256WithRSAEncryption
         72:ad:6a:5d:d5:0b:06:51:12:fb:ce:13:01:fc:52:61:23:f6:
         0b:bd:4b:5e:b3:d7:de:ee:a6:c6:ed:f6:63:47:8a:9f:46:ca:
         27:d5:8a:7e:b0:4a:73:36:f2:20:4e:5a:cb:e9:54:e0:bc:b1:
         8f:7b:a6:10:20:2d:42:3e:4f:59:06:54:6b:c2:57:fa:fb:a0:
         3e:76:6e:60:b4:54:a3:26:db:48:6a:e1:63:bc:4a:35:a5:a2:
         ea:ed:cd:41:d9:0d:65:44:94:ba:f0:c3:fe:10:22:9e:3a:01:
         05:b5:98:b7:18:22:d9:95:46:cf:08:4f:28:aa:5f:fc:2a:1c:
         e3:33:9f:5d:1f:36:bf:8a:95:36:16:53:7f:9b:21:c8:cc:22:
         68:58:32:ae:e6:73:c6:2f:e9:c6:a1:0e:98:0f:ff:f3:eb:48:
         c4:68:c5:f7:dd:fe:1c:2b:08:c6:12:3f:55:4d:93:5d:6a:80:
         37:89:65:be:9e:4b:ce:aa:71:f8:9b:25:2c:6a:1e:73:26:e1:
         eb:db:b3:5e:de:f1:59:e9:c8:65:69:d1:1b:b7:a5:09:5f:01:
         12:23:7d:99:9b:7d:0f:75:e8:0d:a6:84:2e:9d:53:eb:e6:4d:
         20:9d:63:9e:43:48:d3:8a:f3:d5:32:29:d8:eb:ce:82:fb:06:
         cb:e2:60:60
-----BEGIN CERTIFICATE-----
MIIDZjCCAk6gAwIBAgIBATANBgkqhkiG9w0BAQsFADBXMQswCQYDVQQGEwJVUzEO
MAwGA1UECAwFVW5zZXQxDjAMBgNVBAcMBVVuc2V0MQ4wDAYDVQQKDAVVbnNldDEY
MBYGA1UEAwwPd3d3LmV4YW1wbGUuY29tMB4XDTE1MDUwMTA4MDkzNFoXDTI1MDQy
ODA4MDkzNFowRzELMAkGA1UEBhMCVVMxDjAMBgNVBAgMBVVuc2V0MQ4wDAYDVQQK
DAVVbnNldDEYMBYGA1UEAwwPd3d3LmV4YW1wbGUuY29tMIIBIjANBgkqhkiG9w0B
AQEFAAOCAQ8AMIIBCgKCAQEAlarJKGXWFhtlqOTLgq2QfUm6YymNd74AeKst8xZp
WNmbLEfsA5raQqWZn8DL5ejA6P6CndfDNxw8v1WLpUngs5DagTT2gkJHFMtbPBJD
WDtIQULKY8HOKWsWIkPYNkRituziFmVUzdMeNNhcqDnZW4WOfdU9IpAYtBFx9uYV
IvGrfSsb6m7Hd/iBOoq/+r2XocBZ9f8yRLgaAk5aW2ZT4zt4MKAh9cfTD96xV25W
yhfH1TWoC2MUe7RhiD0kA52kXEiCl/MJ/5cUz0T8o86XmYxAZydGiPZ0amA8f+cw
Y4LEXpCerBIW1ZaiwuiFBN9oxk5AZa85Kps5YwgKQpBNaQIDAQABo00wSzAJBgNV
HRMEAjAAMB0GA1UdDgQWBBTU8Ha8IhA/2Yt4cHjQgBgVPaW0izAfBgNVHSMEGDAW
gBR/qDdLO7yweo8rcSU1zZQXLVQTOTANBgkqhkiG9w0BAQsFAAOCAQEAcq1qXdUL
BlES+84TAfxSYSP2C71LXrPX3u6mxu32Y0eKn0bKJ9WKfrBKczbyIE5ay+lU4Lyx
j3umECAtQj5PWQZUa8JX+vugPnZuYLRUoybbSGrhY7xKNaWi6u3NQdkNZUSUuvDD
/hAinjoBBbWYtxgi2ZVGzwhPKKpf/Coc4zOfXR82v4qVNhZTf5shyMwiaFgyruZz
xi/pxqEOmA//8+tIxGjF993+HCsIxhI/VU2TXWqAN4llvp5Lzqpx+JslLGoecybh
69uzXt7xWenIZWnRG7elCV8BEiN9mZt9D3XoDaaELp1T6+ZNIJ1jnkNI04rz1TIp
2OvOgvsGy+JgYA==
-----END CERTIFICATE-----
